; Function Attrs: mustprogress uwtable
define noundef double @_ZN7rocksdb9lru_cache8LRUCache19GetHighPriPoolRatioEv(ptr nocapture noundef nonnull readonly align 8 dereferenceable(144) %this) local_unnamed_addr #0 align 2 personality ptr @__gxx_personality_v0 {
entry:
  %shards_.i = getelementptr inbounds i8, ptr %this, i64 128
  %0 = load ptr, ptr %shards_.i, align 8
  %mutex_.i = getelementptr inbounds i8, ptr %0, i64 208
  tail call void @_ZN7rocksdb4port5Mutex4LockEv(ptr noundef nonnull align 8 dereferenceable(40) %mutex_.i)
  %high_pri_pool_ratio_.i = getelementptr inbounds i8, ptr %0, i64 40
  %1 = load double, ptr %high_pri_pool_ratio_.i, align 8
  invoke void @_ZN7rocksdb4port5Mutex6UnlockEv(ptr noundef nonnull align 8 dereferenceable(40) %mutex_.i)
          to label %_ZN7rocksdb9lru_cache13LRUCacheShard19GetHighPriPoolRatioEv.exit unwind label %terminate.lpad.i.i

terminate.lpad.i.i:                               ; preds = %entry
  %2 = landingpad { ptr, i32 }
          catch ptr null
  %3 = extractvalue { ptr, i32 } %2, 0
  tail call void @__clang_call_terminate(ptr %3) #27
  unreachable

_ZN7rocksdb9lru_cache13LRUCacheShard19GetHighPriPoolRatioEv.exit: ; preds = %entry
  ret double %1
}